target datalayout = "e-m:e-p270:32:32-p271:32:32-p272:64:64-i64:64-i128:128-f80:128-n8:16:32:64-S128"
target triple = "x86_64-pc-linux-gnu"

%class.Node = type <{ ptr, ptr, ptr, i32, i32, i32, i32, i32, i32, i32, [4 x i8] }>
%class.Node_List = type <{ %class.Node_Array, i32, [4 x i8] }>
%class.Node_Array = type { ptr, i32, ptr }
%class.IdealLoopTree = type <{ ptr, ptr, ptr, ptr, ptr, ptr, i32, i32, %class.Node_List, i16, i8, [5 x i8], ptr, ptr, i8, [7 x i8] }>

; Function Attrs: mustprogress nounwind uwtable
define linkonce_odr hidden noundef zeroext i1 @_ZNK4Node7is_BoolEv(ptr noundef nonnull align 8 dereferenceable(52) %0) #1 comdat align 2 {
  %2 = alloca ptr, align 8
  store ptr %0, ptr %2, align 8
  %3 = load ptr, ptr %2, align 8
  %4 = getelementptr inbounds %class.Node, ptr %3, i32 0, i32 8
  %5 = load i32, ptr %4, align 4
  %6 = and i32 %5, 511
  %7 = icmp eq i32 %6, 256
  ret i1 %7
}

; Function Attrs: mustprogress nounwind uwtable
define linkonce_odr hidden noundef zeroext i1 @_ZNK4Node6is_topEv(ptr noundef nonnull align 8 dereferenceable(52) %0) #1 comdat align 2 {
  %2 = alloca ptr, align 8
  store ptr %0, ptr %2, align 8
  %3 = load ptr, ptr %2, align 8
  %4 = getelementptr inbounds %class.Node, ptr %3, i32 0, i32 2
  %5 = load ptr, ptr %4, align 8
  %6 = icmp eq ptr %5, null
  ret i1 %6
}

; Function Attrs: mustprogress nounwind uwtable
define linkonce_odr hidden noundef i32 @_ZNK4Node3reqEv(ptr noundef nonnull align 8 dereferenceable(52) %0) #1 comdat align 2 {
  %2 = alloca ptr, align 8
  store ptr %0, ptr %2, align 8
  %3 = load ptr, ptr %2, align 8
  %4 = getelementptr inbounds %class.Node, ptr %3, i32 0, i32 3
  %5 = load i32, ptr %4, align 8
  ret i32 %5
}

; Function Attrs: mustprogress nounwind uwtable
define linkonce_odr hidden noundef ptr @_ZNK4Node2inEj(ptr noundef nonnull align 8 dereferenceable(52) %0, i32 noundef %1) #1 comdat align 2 {
  %3 = alloca ptr, align 8
  %4 = alloca i32, align 4
  store ptr %0, ptr %3, align 8
  store i32 %1, ptr %4, align 4
  %5 = load ptr, ptr %3, align 8
  %6 = getelementptr inbounds %class.Node, ptr %5, i32 0, i32 1
  %7 = load ptr, ptr %6, align 8
  %8 = load i32, ptr %4, align 4
  %9 = zext i32 %8 to i64
  %10 = getelementptr inbounds ptr, ptr %7, i64 %9
  %11 = load ptr, ptr %10, align 8
  ret ptr %11
}

; Function Attrs: mustprogress nounwind uwtable
define hidden noundef ptr @_ZN14PhaseIdealLoop17loop_exit_controlEP4NodeP13IdealLoopTree(ptr noundef nonnull align 8 dereferenceable(237) %0, ptr noundef %1, ptr noundef %2) #1 align 2 {
  %4 = alloca ptr, align 8
  %5 = alloca ptr, align 8
  %6 = alloca ptr, align 8
  %7 = alloca ptr, align 8
  %8 = alloca ptr, align 8
  %9 = alloca ptr, align 8
  %10 = alloca ptr, align 8
  %11 = alloca i32, align 4
  %12 = alloca ptr, align 8
  store ptr %0, ptr %5, align 8
  store ptr %1, ptr %6, align 8
  store ptr %2, ptr %7, align 8
  %13 = load ptr, ptr %5, align 8
  %14 = load ptr, ptr %6, align 8
  %15 = call noundef ptr @_ZNK4Node2inEj(ptr noundef nonnull align 8 dereferenceable(52) %14, i32 noundef 0)
  %16 = icmp eq ptr %15, null
  br i1 %16, label %27, label %17

17:                                               ; preds = %3
  %18 = load ptr, ptr %6, align 8
  %19 = call noundef i32 @_ZNK4Node3reqEv(ptr noundef nonnull align 8 dereferenceable(52) %18)
  %20 = icmp ne i32 %19, 3
  br i1 %20, label %27, label %21

21:                                               ; preds = %17
  %22 = load ptr, ptr %7, align 8
  %23 = getelementptr inbounds %class.IdealLoopTree, ptr %22, i32 0, i32 10
  %24 = load i8, ptr %23, align 2
  %25 = and i8 %24, 1
  %26 = icmp ne i8 %25, 0
  br i1 %26, label %27, label %28

27:                                               ; preds = %21, %17, %3
  store ptr null, ptr %4, align 8
  br label %83

28:                                               ; preds = %21
  %29 = load ptr, ptr %6, align 8
  %30 = call noundef ptr @_ZNK4Node2inEj(ptr noundef nonnull align 8 dereferenceable(52) %29, i32 noundef 1)
  store ptr %30, ptr %8, align 8
  %31 = load ptr, ptr %6, align 8
  %32 = call noundef ptr @_ZNK4Node2inEj(ptr noundef nonnull align 8 dereferenceable(52) %31, i32 noundef 2)
  store ptr %32, ptr %9, align 8
  %33 = load ptr, ptr %8, align 8
  %34 = icmp eq ptr %33, null
  br i1 %34, label %38, label %35

35:                                               ; preds = %28
  %36 = load ptr, ptr %9, align 8
  %37 = icmp eq ptr %36, null
  br i1 %37, label %38, label %39

38:                                               ; preds = %35, %28
  store ptr null, ptr %4, align 8
  br label %83

39:                                               ; preds = %35
  %40 = load ptr, ptr %8, align 8
  %41 = call noundef zeroext i1 @_ZNK4Node6is_topEv(ptr noundef nonnull align 8 dereferenceable(52) %40)
  br i1 %41, label %45, label %42

42:                                               ; preds = %39
  %43 = load ptr, ptr %9, align 8
  %44 = call noundef zeroext i1 @_ZNK4Node6is_topEv(ptr noundef nonnull align 8 dereferenceable(52) %43)
  br i1 %44, label %45, label %46

45:                                               ; preds = %42, %39
  store ptr null, ptr %4, align 8
  br label %83

46:                                               ; preds = %42
  %47 = load ptr, ptr %9, align 8
  %48 = load ptr, ptr %47, align 8
  %49 = getelementptr inbounds ptr, ptr %48, i64 0
  %50 = load ptr, ptr %49, align 8
  %51 = call noundef i32 %50(ptr noundef nonnull align 8 dereferenceable(52) %47)
  %52 = icmp eq i32 %51, 300
  br i1 %52, label %53, label %56

53:                                               ; preds = %46
  %54 = load ptr, ptr %9, align 8
  %55 = call noundef ptr @_ZNK4Node2inEj(ptr noundef nonnull align 8 dereferenceable(52) %54, i32 noundef 0)
  store ptr %55, ptr %9, align 8
  br label %56

56:                                               ; preds = %53, %46
  %57 = load ptr, ptr %9, align 8
  store ptr %57, ptr %10, align 8
  %58 = load ptr, ptr %10, align 8
  %59 = load ptr, ptr %58, align 8
  %60 = getelementptr inbounds ptr, ptr %59, i64 0
  %61 = load ptr, ptr %60, align 8
  %62 = call noundef i32 %61(ptr noundef nonnull align 8 dereferenceable(52) %58)
  store i32 %62, ptr %11, align 4
  %63 = load i32, ptr %11, align 4
  %64 = icmp ne i32 %63, 180
  br i1 %64, label %65, label %69

65:                                               ; preds = %56
  %66 = load i32, ptr %11, align 4
  %67 = icmp ne i32 %66, 179
  br i1 %67, label %68, label %69

68:                                               ; preds = %65
  store ptr null, ptr %4, align 8
  br label %83

69:                                               ; preds = %65, %56
  %70 = load ptr, ptr %10, align 8
  %71 = call noundef ptr @_ZNK4Node2inEj(ptr noundef nonnull align 8 dereferenceable(52) %70, i32 noundef 0)
  store ptr %71, ptr %12, align 8
  %72 = load ptr, ptr %12, align 8
  %73 = call noundef ptr @_ZNK14PhaseIdealLoop8get_loopEP4Node(ptr noundef nonnull align 8 dereferenceable(237) %13, ptr noundef %72)
  %74 = load ptr, ptr %7, align 8
  %75 = icmp ne ptr %73, %74
  br i1 %75, label %80, label %76

76:                                               ; preds = %69
  %77 = load ptr, ptr %12, align 8
  %78 = call noundef ptr @_ZNK4Node2inEj(ptr noundef nonnull align 8 dereferenceable(52) %77, i32 noundef 1)
  %79 = call noundef zeroext i1 @_ZNK4Node7is_BoolEv(ptr noundef nonnull align 8 dereferenceable(52) %78)
  br i1 %79, label %81, label %80

80:                                               ; preds = %76, %69
  store ptr null, ptr %4, align 8
  br label %83

81:                                               ; preds = %76
  %82 = load ptr, ptr %10, align 8
  store ptr %82, ptr %4, align 8
  br label %83

83:                                               ; preds = %81, %80, %68, %45, %38, %27
  %84 = load ptr, ptr %4, align 8
  ret ptr %84
}