; Function Attrs: mustprogress nounwind uwtable
define hidden noundef ptr @_ZN14PhaseIdealLoop17loop_exit_controlEP4NodeP13IdealLoopTree(ptr noundef nonnull align 8 dereferenceable(237) %0, ptr nocapture noundef readonly %1, ptr noundef readonly %2) local_unnamed_addr #0 align 2 {
  %4 = getelementptr inbounds i8, ptr %1, i64 8
  %5 = load ptr, ptr %4, align 8
  %6 = load ptr, ptr %5, align 8
  %7 = icmp eq ptr %6, null
  br i1 %7, label %58, label %8

8:                                                ; preds = %3
  %9 = getelementptr inbounds i8, ptr %1, i64 24
  %10 = load i32, ptr %9, align 8
  %.not = icmp eq i32 %10, 3
  br i1 %.not, label %11, label %58

11:                                               ; preds = %8
  %12 = getelementptr inbounds i8, ptr %2, i64 90
  %13 = load i8, ptr %12, align 2
  %14 = and i8 %13, 1
  %.not27 = icmp eq i8 %14, 0
  br i1 %.not27, label %15, label %58

15:                                               ; preds = %11
  %16 = getelementptr inbounds i8, ptr %5, i64 8
  %17 = load ptr, ptr %16, align 8
  %18 = getelementptr inbounds i8, ptr %5, i64 16
  %19 = load ptr, ptr %18, align 8
  %20 = icmp eq ptr %17, null
  %21 = icmp eq ptr %19, null
  %or.cond = or i1 %20, %21
  br i1 %or.cond, label %58, label %22

22:                                               ; preds = %15
  %23 = getelementptr inbounds i8, ptr %17, i64 16
  %24 = load ptr, ptr %23, align 8
  %25 = icmp eq ptr %24, null
  br i1 %25, label %58, label %26

26:                                               ; preds = %22
  %27 = getelementptr inbounds i8, ptr %19, i64 16
  %28 = load ptr, ptr %27, align 8
  %29 = icmp eq ptr %28, null
  br i1 %29, label %58, label %30

30:                                               ; preds = %26
  %31 = load ptr, ptr %19, align 8
  %32 = load ptr, ptr %31, align 8
  %33 = tail call noundef i32 %32(ptr noundef nonnull align 8 dereferenceable(52) %19) #15
  %34 = icmp eq i32 %33, 300
  br i1 %34, label %35, label %39

35:                                               ; preds = %30
  %36 = getelementptr inbounds i8, ptr %19, i64 8
  %37 = load ptr, ptr %36, align 8
  %38 = load ptr, ptr %37, align 8
  br label %39

39:                                               ; preds = %35, %30
  %.024 = phi ptr [ %38, %35 ], [ %19, %30 ]
  %40 = load ptr, ptr %.024, align 8
  %41 = load ptr, ptr %40, align 8
  %42 = tail call noundef i32 %41(ptr noundef nonnull align 8 dereferenceable(52) %.024) #15
  %43 = add i32 %42, -181
  %or.cond3 = icmp ult i32 %43, -2
  br i1 %or.cond3, label %58, label %44

44:                                               ; preds = %39
  %45 = getelementptr inbounds i8, ptr %.024, i64 8
  %46 = load ptr, ptr %45, align 8
  %47 = load ptr, ptr %46, align 8
  %48 = tail call noundef ptr @_ZNK14PhaseIdealLoop8get_loopEP4Node(ptr noundef nonnull align 8 dereferenceable(237) %0, ptr noundef %47)
  %.not28 = icmp eq ptr %48, %2
  br i1 %.not28, label %49, label %58

49:                                               ; preds = %44
  %50 = getelementptr inbounds i8, ptr %47, i64 8
  %51 = load ptr, ptr %50, align 8
  %52 = getelementptr inbounds i8, ptr %51, i64 8
  %53 = load ptr, ptr %52, align 8
  %54 = getelementptr inbounds i8, ptr %53, i64 44
  %55 = load i32, ptr %54, align 4
  %56 = and i32 %55, 511
  %57 = icmp eq i32 %56, 256
  %spec.select = select i1 %57, ptr %.024, ptr null
  br label %58

58:                                               ; preds = %49, %44, %39, %22, %26, %15, %3, %8, %11
  %.0 = phi ptr [ null, %11 ], [ null, %8 ], [ null, %3 ], [ null, %15 ], [ null, %26 ], [ null, %22 ], [ null, %39 ], [ null, %44 ], [ %spec.select, %49 ]
  ret ptr %.0
}